; Function Attrs: nounwind uwtable
define ptr @l_Lean_Meta_splitIfTarget_x3f(ptr noundef %0, ptr noundef %1, ptr noundef %2, ptr noundef %3, ptr noundef %4, ptr noundef %5, ptr noundef %6) local_unnamed_addr #1 {
  tail call void @lean_inc_heartbeat() #7
  %8 = tail call noalias ptr @mi_malloc_small(i64 noundef 40) #7
  %9 = icmp eq ptr %8, null
  br i1 %9, label %10, label %lean_alloc_closure.exit

10:                                               ; preds = %7
  tail call void @lean_internal_panic_out_of_memory() #8
  unreachable

lean_alloc_closure.exit:                          ; preds = %7
  %11 = getelementptr inbounds nuw i8, ptr %8, i64 4
  store i32 1, ptr %8, align 4, !tbaa !4
  store i32 -184549336, ptr %11, align 4
  %12 = getelementptr inbounds nuw i8, ptr %8, i64 8
  store ptr @l_Lean_Meta_splitIfTarget_x3f___lambda__1, ptr %12, align 8, !tbaa !10
  %13 = getelementptr inbounds nuw i8, ptr %8, i64 16
  store i16 7, ptr %13, align 8, !tbaa !12
  %14 = getelementptr inbounds nuw i8, ptr %8, i64 18
  store i16 2, ptr %14, align 2, !tbaa !12
  %15 = getelementptr inbounds nuw i8, ptr %8, i64 24
  store ptr %0, ptr %15, align 8, !tbaa !10
  %16 = getelementptr inbounds nuw i8, ptr %8, i64 32
  store ptr %1, ptr %16, align 8, !tbaa !10
  %17 = tail call ptr @l_Lean_commitWhenSome_x3f___at_Lean_Meta_splitIfTarget_x3f___spec__1(ptr noundef nonnull %8, ptr noundef %2, ptr noundef %3, ptr noundef %4, ptr noundef %5, ptr noundef %6)
  ret ptr %17
}